; Function Attrs: mustprogress uwtable
define dso_local noundef i64 @_ZN10cmDebugger30cmDebuggerPipeConnection_POSIX4readEPvm(ptr noundef nonnull align 8 dereferenceable(216) %0, ptr nocapture noundef %1, i64 noundef %2) unnamed_addr #0 align 2 {
  %4 = getelementptr inbounds i8, ptr %0, i64 212
  %5 = load i32, ptr %4, align 4
  %6 = icmp sgt i32 %5, -1
  br i1 %6, label %7, label %14

7:                                                ; preds = %3
  %8 = tail call i64 @read(i32 noundef %5, ptr noundef %1, i64 noundef %2)
  %9 = icmp eq i64 %8, 0
  br i1 %9, label %10, label %14

10:                                               ; preds = %7
  %11 = load ptr, ptr %0, align 8
  %12 = getelementptr inbounds i8, ptr %11, i64 24
  %13 = load ptr, ptr %12, align 8
  tail call void %13(ptr noundef nonnull align 8 dereferenceable(216) %0)
  br label %14

14:                                               ; preds = %7, %10, %3
  %.0 = phi i64 [ 0, %10 ], [ %8, %7 ], [ 0, %3 ]
  ret i64 %.0
}